; Function Attrs: nounwind uwtable
define ptr @l_Lean_Meta_Canonicalizer_canon_unsafe__1___boxed(ptr noundef %0, ptr noundef %1) local_unnamed_addr #2 {
  %3 = getelementptr i8, ptr %0, i64 8
  %.val = load i64, ptr %3, align 8, !tbaa !12
  %4 = ptrtoint ptr %0 to i64
  %5 = and i64 %4, 1
  %.not = icmp eq i64 %5, 0
  br i1 %.not, label %6, label %lean_dec.exit5

6:                                                ; preds = %2
  %7 = load i32, ptr %0, align 4, !tbaa !8
  %8 = icmp sgt i32 %7, 1
  br i1 %8, label %9, label %11, !prof !11

9:                                                ; preds = %6
  %10 = add nsw i32 %7, -1
  store i32 %10, ptr %0, align 4, !tbaa !8
  br label %lean_dec.exit5

11:                                               ; preds = %6
  %.not.i = icmp eq i32 %7, 0
  br i1 %.not.i, label %lean_dec.exit5, label %12

12:                                               ; preds = %11
  tail call void @lean_dec_ref_cold(ptr noundef nonnull %0) #6
  br label %lean_dec.exit5

lean_dec.exit5:                                   ; preds = %12, %11, %9, %2
  %13 = getelementptr inbounds nuw i8, ptr %1, i64 16
  %14 = load ptr, ptr %13, align 8, !tbaa !4
  %15 = getelementptr inbounds nuw i8, ptr %14, i64 16
  %16 = load ptr, ptr %15, align 8, !tbaa !4
  %17 = getelementptr i8, ptr %16, i64 8
  %.val.i = load i64, ptr %17, align 8, !tbaa !12
  %18 = and i64 %.val.i, 9223372036854775807
  %19 = lshr i64 %.val, 32
  %20 = xor i64 %19, %.val
  %21 = lshr i64 %20, 16
  %22 = xor i64 %21, %20
  %23 = add nsw i64 %18, -1
  %24 = and i64 %23, %22
  %25 = getelementptr inbounds nuw i8, ptr %16, i64 24
  %26 = getelementptr inbounds nuw [0 x ptr], ptr %25, i64 0, i64 %24
  %27 = load ptr, ptr %26, align 8, !tbaa !4
  %28 = ptrtoint ptr %27 to i64
  %29 = and i64 %28, 1
  %.not.i23.i = icmp eq i64 %29, 0
  br i1 %.not.i23.i, label %30, label %l_Lean_Meta_Canonicalizer_canon_unsafe__1.exit

30:                                               ; preds = %lean_dec.exit5
  %.val.i.i.i = load i32, ptr %27, align 4, !tbaa !8
  %31 = icmp sgt i32 %.val.i.i.i, 0
  br i1 %31, label %32, label %34, !prof !11

32:                                               ; preds = %30
  %33 = add nuw i32 %.val.i.i.i, 1
  store i32 %33, ptr %27, align 4, !tbaa !8
  br label %l_Lean_Meta_Canonicalizer_canon_unsafe__1.exit

34:                                               ; preds = %30
  %.not.i.i.i = icmp eq i32 %.val.i.i.i, 0
  br i1 %.not.i.i.i, label %l_Lean_Meta_Canonicalizer_canon_unsafe__1.exit, label %35

35:                                               ; preds = %34
  tail call void @lean_inc_ref_cold(ptr noundef nonnull %27) #6
  br label %l_Lean_Meta_Canonicalizer_canon_unsafe__1.exit

l_Lean_Meta_Canonicalizer_canon_unsafe__1.exit:   ; preds = %lean_dec.exit5, %32, %34, %35
  %36 = tail call ptr @l_Std_DHashMap_Internal_AssocList_get_x3f___at_Lean_Meta_Canonicalizer_canon_unsafe__1___spec__1(i64 noundef %.val, ptr noundef %27)
  %37 = ptrtoint ptr %1 to i64
  %38 = and i64 %37, 1
  %.not8 = icmp eq i64 %38, 0
  br i1 %.not8, label %39, label %lean_dec.exit

39:                                               ; preds = %l_Lean_Meta_Canonicalizer_canon_unsafe__1.exit
  %40 = load i32, ptr %1, align 4, !tbaa !8
  %41 = icmp sgt i32 %40, 1
  br i1 %41, label %42, label %44, !prof !11

42:                                               ; preds = %39
  %43 = add nsw i32 %40, -1
  store i32 %43, ptr %1, align 4, !tbaa !8
  br label %lean_dec.exit

44:                                               ; preds = %39
  %.not.i6 = icmp eq i32 %40, 0
  br i1 %.not.i6, label %lean_dec.exit, label %45

45:                                               ; preds = %44
  tail call void @lean_dec_ref_cold(ptr noundef nonnull %1) #6
  br label %lean_dec.exit

lean_dec.exit:                                    ; preds = %45, %44, %42, %l_Lean_Meta_Canonicalizer_canon_unsafe__1.exit
  ret ptr %36
}